(dp1
S'output'
p2
S"<type 'exceptions.SyntaxError'> Set: no tables selected"
p3
sS'layer'
p4
S'/home/lalezka/Documentos/web2py/applications/Apolo/views/default/perfilth.html'
p5
sS'code'
p6
S'response.write(\'<!DOCTYPE html>\\n<html lang="es">\\n <html class="no-js" lang="\', escape=False)\nresponse.write(T.accepted_language or \'en\')\nresponse.write(\'">\\n  <head>\\n    <meta charset="utf-8">                                                                               <!-- Codificaci\\xc3\\xb3n utf-8 -->\\n    <meta http-equiv="X-UA-Compatible" content="IE=edge\', escape=False)\nresponse.write(not request.is_local and \',chrome=1\' or \'\')\nresponse.write(\'"> <!-- Compattibilidad con navegadores -->\\n    <meta name="viewport" content="width=device-width, initial-scale=1">                                 <!-- Responsive :) -->\\n    <title>\', escape=False)\nresponse.write(response.title or request.application)\nresponse.write(\'</title>                                            <!-- Titulo para el navegador -->\\n    <meta name="application-name" content="\', escape=False)\nresponse.write(request.application)\nresponse.write(\'">                                    <!-- Meta con el titulo -->\\n    <meta name="google-site-verification" content="">                                                    <!-- Google aceptanos -->\\n    <link href="http://fonts.googleapis.com/css?family=Roboto" rel="stylesheet" type="text/css" />       <!-- Importar fuente Roboto -->\\n    <link rel="stylesheet" href="\', escape=False)\nresponse.write(URL(\'static\',\'css/bootstrap.min.css\'))\nresponse.write(\'"/>                           <!-- Importar stylesheet de bootstrap -->\\n    <link rel="stylesheet" href="\', escape=False)\nresponse.write(URL(\'static\',\'css/web2py-bootstrap3.css\'))\nresponse.write(\'"/>                       <!-- Importar stylesheet de bootstrap de web2py -->\\n    <link rel="stylesheet" href="\', escape=False)\nresponse.write(URL(\'static\',\'css/custom.css\'))\nresponse.write(\'"/>                                  <!-- Importar stylesheet propio -->\\n    <link rel="shortcut icon" href="\', escape=False)\nresponse.write(URL(\'static\',\'images/favicon.ico\'))\nresponse.write(\'" type="image/x-icon">\\n    <link rel="apple-touch-icon" href="\', escape=False)\nresponse.write(URL(\'static\',\'images/favicon.png\'))\nresponse.write(\'">\\n    <script src="\', escape=False)\nresponse.write(URL(\'static\',\'js/modernizr-2.8.3.min.js\'))\nresponse.write(\'"></script>\\n\\n    \', escape=False)\nresponse.write(\'<script type="text/javascript"><!--\\n    // These variables are used by the web2py_ajax_init function in web2py_ajax.js (which is loaded below).\\n    var w2p_ajax_confirm_message = "\', escape=False)\nresponse.write(T(\'Are you sure you want to delete this object?\'))\nresponse.write(\'";\\n    var w2p_ajax_disable_with_message = "\', escape=False)\nresponse.write(T(\'Working...\'))\nresponse.write(\'";\\n    var w2p_ajax_date_format = "\', escape=False)\nresponse.write(T(\'%Y-%m-%d\'))\nresponse.write(\'";\\n    var w2p_ajax_datetime_format = "\', escape=False)\nresponse.write(T(\'%Y-%m-%d %H:%M:%S\'))\nresponse.write(\'";\\n    var ajax_error_500 = \\\'\', escape=False)\nresponse.write(T.M(\'An error occured, please [[reload %s]] the page\') % URL(args=request.args, vars=request.get_vars))\nresponse.write("\'\\n    //--></script>\\n", escape=False)\nresponse.files.insert(0,URL(\'static\',\'js/jquery.js\'))\nresponse.files.insert(1,URL(\'static\',\'css/calendar.css\'))\nresponse.files.insert(2,URL(\'static\',\'js/calendar.js\'))\nresponse.files.insert(3,URL(\'static\',\'js/web2py.js\'))\nresponse.include_meta()\nresponse.include_files()\nresponse.write(\'\\n\', escape=False)\nresponse.write(\' <!-- this includes jquery.js, calendar.js/.css and web2py.js -->\\n    \', escape=False)\nresponse.write(\'\\n    \', escape=False)\n# using sidebars need to know what sidebar you want to use\nmc0 = \'col-md-12\'\nmc1 = \'col-md-9\'\nmc2 = \'col-md-6\'\nleft_sidebar_enabled = globals().get(\'left_sidebar_enabled\', False)\nright_sidebar_enabled = globals().get(\'right_sidebar_enabled\', False)\nmiddle_column = {0: mc0, 1: mc1, 2: mc2}[\n(left_sidebar_enabled and 1 or 0)+(right_sidebar_enabled and 1 or 0)]\nresponse.write(\'\\n\\n  </head>\\n\\n  <body>\\n    <!-- Barra de navegaci\\xc3\\xb3n -->\\n   <nav class="navbar navbar-default navbar-fixed-top bg-4" role="navigation">\\n      <div class="container-fluid">\\n        <div class="navbar-header">\\n          <button type="button" class="navbar-toggle" data-toggle="collapse" data-target=".navbar-collapse">\\n            <span class="sr-only">Toggle navigation</span>\\n            <span class="icon-bar"></span>\\n            <span class="icon-bar"></span>\\n            <span class="icon-bar"></span>\\n          </button>\\n\\n          <!-- Banner -->\\n          <div class="row bg-2">\\n              <div class="col-md-6 col-sm-6 col-xs-6 col-md-offset-3 col-sm-offset-3 col-xs-offset-3">\\n                <img class="img-responsive" src="\', escape=False)\nresponse.write(URL(\'static\',\'images/logo-banner-large.png\'))\nresponse.write(\'" alt="Banner">\\n              </div>\\n            </div>\\n        </div>\\n\\n        <!-- Agrupar los enlaces de navegaci\\xc3\\xb3n, los formularios y cualquier\\n        otro elemento que se pueda ocultar al minimizar la barra -->\\n          <!-- FALTAN AGREGAR LOS HRER BIEN -->\\n        <div class="collapse navbar-collapse navbar-ex1-collapse" style="font-family:roboto;">\\n          <ul class="nav navbar-nav">\\n              <!-- DEFINIR CON WEB2PY EL INDEX CUANDO NO INICIAS SESION Y CUANDO INICIASTE SESION -->\\n            <li><a href="../default/index.html">About</a></li>\\n            <li class="dropdown">\\n              <a href="#" class="dropdown-toggle"> Operaciones <b class="caret"> </b> </a>\\n              <ul class="dropdown-menu">\\n                <li><a href="#">Servicio</a></li>\\n                <li class="divider"></li>\\n                <li><a href="#">Parte</a></li>\\n              </ul>\\n            </li>\\n              <li class="dropdown"> <a href="#" class="dropdown-toggle"> Talento Humano <b class="caret"></b> </a>\\n              <ul class="dropdown-menu">\\n                <li> <a href="../default/perfilth.html"> Ver Perfil </a> </li>\\n                <li class="divider"></li>\\n                <li> <a href="../default/perfilmodth.html"> Modificar Perfil </a> </li>\\n                <li class="divider"></li>\\n                <li> <a href="../default/buscarth.html"> Buscar </a> </li>\\n              </ul>\\n            </li>\\n              <li> <a href="#">Educaci\\xc3\\xb3n</a> </li>\\n              <li> <a href="#">Administraci\\xc3\\xb3n</a> </li>\\n              <li> <a href="#">Riesgos</a> </li>\\n              <li> <a href="../default/indexno.html">Salir</a> </li>\\n          </ul>\\n        </div>\\n      </div>\\n    </nav>\\n    \\n    \', escape=False)\nresponse.write(\'\\n<h1>This is the perfilth.html template</h1>\\n\', escape=False)\nresponse.write(BEAUTIFY(response._vars))\nresponse.write(\'\\n\\n<div class="container" style="font-family:roboto;">\\n    \', escape=False)\ndatos_usuario = db().select()\nresponse.write(\'\\n    <br /><br /><br /><br /><br /><br />\\n    <div class="row">\\n        <!-- Foto -->\\n        <div class="col-xs-4">\\n            <div class="box">\\n                <img src="\', escape=False)\nresponse.write(URL(\'static\',\'images/apolo.png\'))\nresponse.write(\'" width="200px" height="200px">\\n            </div>\\n        </div>\\n        <!-- Nombre del usuario -->\\n        <b> <div class="col-xs-4 text-center" style="font-size:40px;"> Apolo </div> </b>\\n    </div>\\n    <br />\\n    <br />\\n    <br />\\n    <!-- Datos -->\\n    <div class="row">\\n        <b>\\n        <div class="col-xs-8 text-left" style="font-size:30px;">Datos B\\xc3\\xa1sicos</div>\\n        <div class="col-xs-4 text-left" style="font-size:30px;">Datos de Contacto</div>\\n        </b>\\n    </div>\\n    <div class="row">\\n        <b><div class="col-xs-3 text-left" style="font-size:15px;">C\\xc3\\xa9dula: </div></b>\\n        <div class="col-xs-3 text-left" style="font-size:15px;">23466895</div>\\n        <b><div class="col-xs-3 text-left" style="font-size:15px;">Celular: </div></b>\\n        <div class="col-xs-3 text-left" style="font-size:15px;">0426-5550044</div>\\n        <b><div class="col-xs-3 text-left" style="font-size:15px;">Fecha de Nacimiento: </div></b>\\n        <div class="col-xs-3 text-left" style="font-size:15px;">01/12/1994</div>\\n        <b><div class="col-xs-3 text-left" style="font-size:15px;">Casa: </div></b>\\n        <div class="col-xs-3 text-left" style="font-size:15px;">0212-9093909</div>\\n        <b><div class="col-xs-3 text-left" style="font-size:15px;">Sexo: </div></b>\\n        <div class="col-xs-3 text-left" style="font-size:15px;">F</div>\\n        <b><div class="col-xs-3 text-left" style="font-size:15px;">Trabajo: </div></b>\\n        <div class="col-xs-3 text-left" style="font-size:15px;">0212-9876543</div>\\n        <b><div class="col-xs-3 text-left" style="font-size:15px;">Tipo de Sangre: </div></b>\\n        <div class="col-xs-3 text-left" style="font-size:15px;">Factor O Rh -</div>\\n        <b><div class="col-xs-3 text-left" style="font-size:15px;">Email: </div></b>\\n        <div class="col-xs-3 text-left" style="font-size:15px;">correo@gmail.com</div>\\n    </div>\\n    <br /><br /><br />\\n    <!-- Condicion -->\\n    <b> <div class="\\xc2\\xbftext-left" style="font-size:30px;"> Condici\\xc3\\xb3n </div> </b>\\n    <div class="\\xc2\\xbftext-left" style="font-size:15px;"> No hay informaci\\xc3\\xb3n de la condici\\xc3\\xb3n actual. </div>\\n    <br /><br /><br />\\n    <!-- Vacaciones -->\\n    <b> <div class="\\xc2\\xbftext-left" style="font-size:30px;"> Vacaciones </div> </b>\\n    <div class="\\xc2\\xbftext-left" style="font-size:15px;"> Actualmente no se encuentra de vacaciones. </div>\\n    <br /><br /><br />\\n    <!-- Ascenso -->\\n    <b> <div class="text-left" style="font-size:30px;"> Ascenso </div> </b>\\n    <div class="row">\\n        <b> <div class="col-xs-3 text-left" style="font-size:15px;"> Cargo actual: </div> </b>\\n        <div class="col-xs-3 text-left" style="font-size:15px;"> Bombero </div>\\n        <b> <div class="col-xs-3 text-left" style="font-size:15px;"> A\\xc3\\xb1o de ascenso: </div> </b>\\n        <div class="col-xs-3 text-left" style="font-size:15px;"> 2015 </div>\\n        <b> <div class="col-xs-3 text-left" style="font-size:15px;"> Cargo anterior: </div> </b>\\n        <div class="col-xs-3 text-left" style="font-size:15px;"> Rojo </div>\\n        <b> <div class="col-xs-3 text-left" style="font-size:15px;"> A\\xc3\\xb1o de ascenso: </div> </b>\\n        <div class="col-xs-3 text-left" style="font-size:15px;"> 2010 </div>\\n        <b> <div class="col-xs-3 text-left" style="font-size:15px;"> Puntaje: </div> </b>\\n        <div class="col-xs-3 text-left" style="font-size:15px;"> 199 </div>\\n    </div>\\n    <br /><br /><br />\\n    <!-- Premiaciones -->\\n    <b> <div class="\\xc2\\xbftext-left" style="font-size:30px;"> Premiaciones </div> </b>\\n    <br /><br /><br />\\n    <!-- Cursos -->\\n    <b> <div class="\\xc2\\xbftext-center" style="font-size:30px;"> Cursos </div> </b>\\n    <br /><br /><br />\\n    \\n</div>\\n\', escape=False)\nresponse.write(\'\\n      \\n      <!-- Footer -->\\n    <div class="container-fluid bg-4 text-left" style="padding-left: 20%; font-family:roboto;">\\n      <div class="row">\\n        <br>\\n          <p>Cont\\xc3\\xa1ctanos:</p>\\n          <p><span class="glyphicon glyphicon-map-marker">\\n          </span> Direcci\\xc3\\xb3n: Pabell\\xc3\\xb3n 1. Apartado 0900. Valle de Sartenejas. Baruta. Edo Miranda.</p>\\n          <p><span class="glyphicon glyphicon-phone">\\n          </span> Tel\\xc3\\xa9fono: (+58) 212 905-3909</p>\\n          <p><span class="glyphicon glyphicon-envelope">\\n          </span> Correo electr\\xc3\\xb3nico: extension.bomberos@usb.ve</p>\\n        <br>\\n      </div>\\n    </div>\\n\\n    <footer class="footer bg-4">\\n      <div class="container-fluid">\\n        <div class="copyright pull-left" style="font-family:roboto;">\', escape=False)\nresponse.write(T(\'Copyright\'))\nresponse.write(\' &#169; \', escape=False)\nresponse.write(request.now.year)\nresponse.write(\'</div>\\n          <div id="poweredBy" class="pull-right">\\n            \', escape=False)\nresponse.write(T(\'Powered by\'))\nresponse.write(\'\\n            <a href="http://www.web2py.com/">web2py</a>\\n          </div>\\n      </div>\\n    </footer>\\n\\n    <!-- The javascript =============================== -->\\n    <script src="\', escape=False)\nresponse.write(URL(\'static\',\'js/bootstrap.min.js\'))\nresponse.write(\'"></script>\\n    <script src="\', escape=False)\nresponse.write(URL(\'static\',\'js/web2py-bootstrap3.js\'))\nresponse.write(\'"></script>\\n    <script src="https://ajax.googleapis.com/ajax/libs/jquery/2.1.3/jquery.min.js"></script>\\n\\n    \', escape=False)\nresponse.write(\'\\n    \', escape=False)\nif response.google_analytics_id:\n    response.write(\'\\n\\n    <!-- Analytics ==================================== -->\\n    <script src="\', escape=False)\n    response.write(URL(\'static\',\'js/analytics.min.js\'))\n    response.write(\'"></script>\\n    <script type="text/javascript">analytics.initialize({\\\'Google Analytics\\\':{trackingId:\\\'\', escape=False)\n    response.write(response.google_analytics_id)\n    response.write("\'}});</script>\\n    ", escape=False)\n    pass\nresponse.write(\'\\n  </body>\\n</html>\\n\', escape=False)'
p7
sS'snapshot'
p8
(dp9
S'exception'
p10
(dp11
S'__getslice__'
p12
S"<method-wrapper '__getslice__' of exceptions.SyntaxError object>"
p13
sS'text'
p14
S'None'
p15
sS'__str__'
p16
S"<method-wrapper '__str__' of exceptions.SyntaxError object>"
p17
sS'__reduce__'
p18
S'<built-in method __reduce__ of exceptions.SyntaxError object>'
p19
sS'__dict__'
p20
S'{}'
p21
sS'__sizeof__'
p22
S'<built-in method __sizeof__ of exceptions.SyntaxError object>'
p23
sS'__init__'
p24
S"<method-wrapper '__init__' of exceptions.SyntaxError object>"
p25
sS'__setattr__'
p26
S"<method-wrapper '__setattr__' of exceptions.SyntaxError object>"
p27
sS'__reduce_ex__'
p28
S'<built-in method __reduce_ex__ of exceptions.SyntaxError object>'
p29
sS'__new__'
p30
S'<built-in method __new__ of type object>'
p31
sS'__format__'
p32
S'<built-in method __format__ of exceptions.SyntaxError object>'
p33
sS'__class__'
p34
S"<type 'exceptions.SyntaxError'>"
p35
sS'filename'
p36
S'None'
p37
sS'lineno'
p38
S'None'
p39
sS'msg'
p40
S"'Set: no tables selected'"
p41
sS'__doc__'
p42
S"'Invalid syntax.'"
p43
sS'__getitem__'
p44
S"<method-wrapper '__getitem__' of exceptions.SyntaxError object>"
p45
sS'__setstate__'
p46
S'<built-in method __setstate__ of exceptions.SyntaxError object>'
p47
sS'__getattribute__'
p48
S"<method-wrapper '__getattribute__' of exceptions.SyntaxError object>"
p49
sS'print_file_and_line'
p50
S'None'
p51
sS'args'
p52
S"('Set: no tables selected',)"
p53
sS'__subclasshook__'
p54
S'<built-in method __subclasshook__ of type object>'
p55
sS'offset'
p56
S'None'
p57
sS'__unicode__'
p58
S'<built-in method __unicode__ of exceptions.SyntaxError object>'
p59
sS'__delattr__'
p60
S"<method-wrapper '__delattr__' of exceptions.SyntaxError object>"
p61
sS'__repr__'
p62
S"<method-wrapper '__repr__' of exceptions.SyntaxError object>"
p63
sS'__hash__'
p64
S"<method-wrapper '__hash__' of exceptions.SyntaxError object>"
p65
ssS'evalue'
p66
S'Set: no tables selected'
p67
sS'request'
p68
cgluon.html
XML_unpickle
p69
(S'sB\\\x00\x00<div><table><tr><td style="font-weight:bold;vertical-align:top;">ajax</td><td style="vertical-align:top;">:</td><td><div>False</div></td></tr><tr><td style="font-weight:bold;vertical-align:top;">application</td><td style="vertical-align:top;">:</td><td><div>Apolo</div></td></tr><tr><td style="font-weight:bold;vertical-align:top;">args</td><td style="vertical-align:top;">:</td><td><div><table></table></div></td></tr><tr><td style="font-weight:bold;vertical-align:top;">cid</td><td style="vertical-align:top;">:</td><td><div>None</div></td></tr><tr><td style="font-weight:bold;vertical-align:top;">client</td><td style="vertical-align:top;">:</td><td><div>127.0.0.1</div></td></tr><tr><td style="font-weight:bold;vertical-align:top;">controller</td><td style="vertical-align:top;">:</td><td><div>default</div></td></tr><tr><td style="font-weight:bold;vertical-align:top;">cookies</td><td style="vertical-align:top;">:</td><td><div><table><tr><td style="font-weight:bold;vertical-align:top;">session_id_admin</td><td style="vertical-align:top;">:</td><td><div>127.0.0.1-eeaed352-eab9-4a41-88d1-1a1a1b83e62b<table><tr><td style="font-weight:bold;vertical-align:top;">comment</td><td style="vertical-align:top;">:</td><td><div></div></td></tr><tr><td style="font-weight:bold;vertical-align:top;">domain</td><td style="vertical-align:top;">:</td><td><div></div></td></tr><tr><td style="font-weight:bold;vertical-align:top;">expires</td><td style="vertical-align:top;">:</td><td><div></div></td></tr><tr><td style="font-weight:bold;vertical-align:top;">httponly</td><td style="vertical-align:top;">:</td><td><div></div></td></tr><tr><td style="font-weight:bold;vertical-align:top;">max-age</td><td style="vertical-align:top;">:</td><td><div></div></td></tr><tr><td style="font-weight:bold;vertical-align:top;">path</td><td style="vertical-align:top;">:</td><td><div></div></td></tr><tr><td style="font-weight:bold;vertical-align:top;">secure</td><td style="vertical-align:top;">:</td><td><div></div></td></tr><tr><td style="font-weight:bold;vertical-align:top;">version</td><td style="vertical-align:top;">:</td><td><div></div></td></tr></table></div></td></tr><tr><td style="font-weight:bold;vertical-align:top;">session_id_apolo</td><td style="vertical-align:top;">:</td><td><div>127.0.0.1-e8af425c-bc0d-40f3-a88e-bc0d26924e4f<table><tr><td style="font-weight:bold;vertical-align:top;">comment</td><td style="vertical-align:top;">:</td><td><div></div></td></tr><tr><td style="font-weight:bold;vertical-align:top;">domain</td><td style="vertical-align:top;">:</td><td><div></div></td></tr><tr><td style="font-weight:bold;vertical-align:top;">expires</td><td style="vertical-align:top;">:</td><td><div></div></td></tr><tr><td style="font-weight:bold;vertical-align:top;">httponly</td><td style="vertical-align:top;">:</td><td><div></div></td></tr><tr><td style="font-weight:bold;vertical-align:top;">max-age</td><td style="vertical-align:top;">:</td><td><div></div></td></tr><tr><td style="font-weight:bold;vertical-align:top;">path</td><td style="vertical-align:top;">:</td><td><div></div></td></tr><tr><td style="font-weight:bold;vertical-align:top;">secure</td><td style="vertical-align:top;">:</td><td><div></div></td></tr><tr><td style="font-weight:bold;vertical-align:top;">version</td><td style="vertical-align:top;">:</td><td><div></div></td></tr></table></div></td></tr><tr><td style="font-weight:bold;vertical-align:top;">session_id_welcome</td><td style="vertical-align:top;">:</td><td><div>127.0.0.1-14646e76-40ee-48e0-bf12-fe7012c5781f<table><tr><td style="font-weight:bold;vertical-align:top;">comment</td><td style="vertical-align:top;">:</td><td><div></div></td></tr><tr><td style="font-weight:bold;vertical-align:top;">domain</td><td style="vertical-align:top;">:</td><td><div></div></td></tr><tr><td style="font-weight:bold;vertical-align:top;">expires</td><td style="vertical-align:top;">:</td><td><div></div></td></tr><tr><td style="font-weight:bold;vertical-align:top;">httponly</td><td style="vertical-align:top;">:</td><td><div></div></td></tr><tr><td style="font-weight:bold;vertical-align:top;">max-age</td><td style="vertical-align:top;">:</td><td><div></div></td></tr><tr><td style="font-weight:bold;vertical-align:top;">path</td><td style="vertical-align:top;">:</td><td><div></div></td></tr><tr><td style="font-weight:bold;vertical-align:top;">secure</td><td style="vertical-align:top;">:</td><td><div></div></td></tr><tr><td style="font-weight:bold;vertical-align:top;">version</td><td style="vertical-align:top;">:</td><td><div></div></td></tr></table></div></td></tr></table></div></td></tr><tr><td style="font-weight:bold;vertical-align:top;">env</td><td style="vertical-align:top;">:</td><td><div><table><tr><td style="font-weight:bold;vertical-align:top;">HTTP_ACCEPT</td><td style="vertical-align:top;">:</td><td><div>text/html,application/xhtml+xml,application/xml;q=0.9,*/*;q=0.8</div></td></tr><tr><td style="font-weight:bold;vertical-align:top;">HTTP_ACCEPT_ENCODING</td><td style="vertical-align:top;">:</td><td><div>gzip, deflate</div></td></tr><tr><td style="font-weight:bold;vertical-align:top;">HTTP_ACCEPT_LANGUAGE</td><td style="vertical-align:top;">:</td><td><div>en-US,en;q=0.5</div></td></tr><tr><td style="font-weight:bold;vertical-align:top;">HTTP_CACHE_CONTROL</td><td style="vertical-align:top;">:</td><td><div>max-age=0</div></td></tr><tr><td style="font-weight:bold;vertical-align:top;">HTTP_CONNECTION</td><td style="vertical-align:top;">:</td><td><div>keep-alive</div></td></tr><tr><td style="font-weight:bold;vertical-align:top;">HTTP_COOKIE</td><td style="vertical-align:top;">:</td><td><div>session_id_welcome=127.0.0.1-14646e76-40ee-48e0-bf12-fe7012c5781f; session_id_admin=127.0.0.1-eeaed352-eab9-4a41-88d1-1a1a1b83e62b; session_id_apolo=127.0.0.1-e8af425c-bc0d-40f3-a88e-bc0d26924e4f</div></td></tr><tr><td style="font-weight:bold;vertical-align:top;">HTTP_HOST</td><td style="vertical-align:top;">:</td><td><div>127.0.0.1:8000</div></td></tr><tr><td style="font-weight:bold;vertical-align:top;">HTTP_REFERER</td><td style="vertical-align:top;">:</td><td><div>http://127.0.0.1:8000/Apolo/default/index</div></td></tr><tr><td style="font-weight:bold;vertical-align:top;">HTTP_UPGRADE_INSECURE_REQUESTS</td><td style="vertical-align:top;">:</td><td><div>1</div></td></tr><tr><td style="font-weight:bold;vertical-align:top;">HTTP_USER_AGENT</td><td style="vertical-align:top;">:</td><td><div>Mozilla/5.0 (X11; Ubuntu; Linux i686; rv:51.0) Gecko/20100101 Firefox/51.0</div></td></tr><tr><td style="font-weight:bold;vertical-align:top;">PATH_INFO</td><td style="vertical-align:top;">:</td><td><div>/Apolo/default/perfilth.html</div></td></tr><tr><td style="font-weight:bold;vertical-align:top;">QUERY_STRING</td><td style="vertical-align:top;">:</td><td><div></div></td></tr><tr><td style="font-weight:bold;vertical-align:top;">REMOTE_ADDR</td><td style="vertical-align:top;">:</td><td><div>127.0.0.1</div></td></tr><tr><td style="font-weight:bold;vertical-align:top;">REMOTE_PORT</td><td style="vertical-align:top;">:</td><td><div>58856</div></td></tr><tr><td style="font-weight:bold;vertical-align:top;">REQUEST_METHOD</td><td style="vertical-align:top;">:</td><td><div>GET</div></td></tr><tr><td style="font-weight:bold;vertical-align:top;">SCRIPT_NAME</td><td style="vertical-align:top;">:</td><td><div></div></td></tr><tr><td style="font-weight:bold;vertical-align:top;">SERVER_NAME</td><td style="vertical-align:top;">:</td><td><div>lalezka</div></td></tr><tr><td style="font-weight:bold;vertical-align:top;">SERVER_PORT</td><td style="vertical-align:top;">:</td><td><div>8000</div></td></tr><tr><td style="font-weight:bold;vertical-align:top;">SERVER_PROTOCOL</td><td style="vertical-align:top;">:</td><td><div>HTTP/1.1</div></td></tr><tr><td style="font-weight:bold;vertical-align:top;">SERVER_SOFTWARE</td><td style="vertical-align:top;">:</td><td><div>Rocket 1.2.6</div></td></tr><tr><td style="font-weight:bold;vertical-align:top;">app_folders</td><td style="vertical-align:top;">:</td><td><div>set([&#x27;/home/lalezka/Documentos/web2py/applications/welcome/&#x27;, &#x27;/home/lalezka/Documentos/web2py/applications/Apolo/&#x27;, &#x27;/home/lalezka/Documentos/web2py/applications/admin/&#x27;])</div></td></tr><tr><td style="font-weight:bold;vertical-align:top;">applications_parent</td><td style="vertical-align:top;">:</td><td><div>/home/lalezka/Documentos/web2py</div></td></tr><tr><td style="font-weight:bold;vertical-align:top;">cmd_args</td><td style="vertical-align:top;">:</td><td><div><table></table></div></td></tr><tr><td style="font-weight:bold;vertical-align:top;">cmd_options</td><td style="vertical-align:top;">:</td><td><div>&lt;Values at 0xb66d6eec: {&#x27;verbose&#x27;: False, &#x27;ip&#x27;: &#x27;127.0.0.1&#x27;, &#x27;debuglevel&#x27;: 30, &#x27;with_scheduler&#x27;: False, &#x27;shutdown_timeout&#x27;: 5, &#x27;taskbar&#x27;: False, &#x27;with_coverage&#x27;: False, &#x27;pid_filename&#x27;: &#x27;httpserver.pid&#x27;, &#x27;maxthreads&#x27;: None, &#x27;softcron&#x27;: False, &#x27;server_name&#x27;: &#x27;lalezka&#x27;, &#x27;bpython&#x27;: False, &#x27;nogui&#x27;: False, &#x27;port&#x27;: 8000, &#x27;print_errors&#x27;: False, &#x27;extcron&#x27;: False, &#x27;runcron&#x27;: False, &#x27;run_system_tests&#x27;: False, &#x27;test&#x27;: None, &#x27;folder&#x27;: &#x27;/home/lalezka/Documentos/web2py&#x27;, &#x27;config&#x27;: &#x27;&#x27;, &#x27;minthreads&#x27;: None, &#x27;shell&#x27;: None, &#x27;run&#x27;: &#x27;&#x27;, &#x27;log_filename&#x27;: &#x27;httpserver.log&#x27;, &#x27;profiler_dir&#x27;: None, &#x27;args&#x27;: [&#x27;&#x27;], &#x27;socket_timeout&#x27;: 5, &#x27;ssl_ca_certificate&#x27;: None, &#x27;scheduler&#x27;: None, &#x27;interfaces&#x27;: None, &#x27;ssl_private_key&#x27;: &#x27;&#x27;, &#x27;gae&#x27;: None, &#x27;password&#x27;: &#x27;******&#x27;, &#x27;request_queue_size&#x27;: 5, &#x27;ssl_certificate&#x27;: &#x27;&#x27;, &#x27;cronjob&#x27;: False, &#x27;numthreads&#x27;: None, &#x27;quiet&#x27;: False, &#x27;import_models&#x27;: False, &#x27;timeout&#x27;: 10, &#x27;plain&#x27;: False, &#x27;nobanner&#x27;: False}&gt;</div></td></tr><tr><td style="font-weight:bold;vertical-align:top;">db_sessions</td><td style="vertical-align:top;">:</td><td><div>set([])</div></td></tr><tr><td style="font-weight:bold;vertical-align:top;">debugging</td><td style="vertical-align:top;">:</td><td><div>True</div></td></tr><tr><td style="font-weight:bold;vertical-align:top;">gluon_parent</td><td style="vertical-align:top;">:</td><td><div>/home/lalezka/Documentos/web2py</div></td></tr><tr><td style="font-weight:bold;vertical-align:top;">http_accept</td><td style="vertical-align:top;">:</td><td><div>text/html,application/xhtml+xml,application/xml;q=0.9,*/*;q=0.8</div></td></tr><tr><td style="font-weight:bold;vertical-align:top;">http_accept_encoding</td><td style="vertical-align:top;">:</td><td><div>gzip, deflate</div></td></tr><tr><td style="font-weight:bold;vertical-align:top;">http_accept_language</td><td style="vertical-align:top;">:</td><td><div>en-US,en;q=0.5</div></td></tr><tr><td style="font-weight:bold;vertical-align:top;">http_cache_control</td><td style="vertical-align:top;">:</td><td><div>max-age=0</div></td></tr><tr><td style="font-weight:bold;vertical-align:top;">http_connection</td><td style="vertical-align:top;">:</td><td><div>keep-alive</div></td></tr><tr><td style="font-weight:bold;vertical-align:top;">http_cookie</td><td style="vertical-align:top;">:</td><td><div>session_id_welcome=127.0.0.1-14646e76-40ee-48e0-bf12-fe7012c5781f; session_id_admin=127.0.0.1-eeaed352-eab9-4a41-88d1-1a1a1b83e62b; session_id_apolo=127.0.0.1-e8af425c-bc0d-40f3-a88e-bc0d26924e4f</div></td></tr><tr><td style="font-weight:bold;vertical-align:top;">http_host</td><td style="vertical-align:top;">:</td><td><div>127.0.0.1:8000</div></td></tr><tr><td style="font-weight:bold;vertical-align:top;">http_referer</td><td style="vertical-align:top;">:</td><td><div>http://127.0.0.1:8000/Apolo/default/index</div></td></tr><tr><td style="font-weight:bold;vertical-align:top;">http_upgrade_insecure_requests</td><td style="vertical-align:top;">:</td><td><div>1</div></td></tr><tr><td style="font-weight:bold;vertical-align:top;">http_user_agent</td><td style="vertical-align:top;">:</td><td><div>Mozilla/5.0 (X11; Ubuntu; Linux i686; rv:51.0) Gecko/20100101 Firefox/51.0</div></td></tr><tr><td style="font-weight:bold;vertical-align:top;">is_jython</td><td style="vertical-align:top;">:</td><td><div>False</div></td></tr><tr><td style="font-weight:bold;vertical-align:top;">is_pypy</td><td style="vertical-align:top;">:</td><td><div>False</div></td></tr><tr><td style="font-weight:bold;vertical-align:top;">is_source</td><td style="vertical-align:top;">:</td><td><div>True</div></td></tr><tr><td style="font-weight:bold;vertical-align:top;">local_hosts</td><td style="vertical-align:top;">:</td><td><div><table><tr><td><div>::1</div></td></tr><tr><td><div>127.0.1.1</div></td></tr><tr><td><div>::ffff:127.0.0.1</div></td></tr><tr><td><div>127.0.0.1</div></td></tr><tr><td><div>lalezka</div></td></tr></table></div></td></tr><tr><td style="font-weight:bold;vertical-align:top;">path_info</td><td style="vertical-align:top;">:</td><td><div>/Apolo/default/perfilth.html</div></td></tr><tr><td style="font-weight:bold;vertical-align:top;">query_string</td><td style="vertical-align:top;">:</td><td><div></div></td></tr><tr><td style="font-weight:bold;vertical-align:top;">remote_addr</td><td style="vertical-align:top;">:</td><td><div>127.0.0.1</div></td></tr><tr><td style="font-weight:bold;vertical-align:top;">remote_port</td><td style="vertical-align:top;">:</td><td><div>58856</div></td></tr><tr><td style="font-weight:bold;vertical-align:top;">request_method</td><td style="vertical-align:top;">:</td><td><div>GET</div></td></tr><tr><td style="font-weight:bold;vertical-align:top;">request_uri</td><td style="vertical-align:top;">:</td><td><div>/Apolo/default/perfilth.html</div></td></tr><tr><td style="font-weight:bold;vertical-align:top;">script_name</td><td style="vertical-align:top;">:</td><td><div></div></td></tr><tr><td style="font-weight:bold;vertical-align:top;">server_name</td><td style="vertical-align:top;">:</td><td><div>lalezka</div></td></tr><tr><td style="font-weight:bold;vertical-align:top;">server_port</td><td style="vertical-align:top;">:</td><td><div>8000</div></td></tr><tr><td style="font-weight:bold;vertical-align:top;">server_protocol</td><td style="vertical-align:top;">:</td><td><div>HTTP/1.1</div></td></tr><tr><td style="font-weight:bold;vertical-align:top;">server_software</td><td style="vertical-align:top;">:</td><td><div>Rocket 1.2.6</div></td></tr><tr><td style="font-weight:bold;vertical-align:top;">web2py_path</td><td style="vertical-align:top;">:</td><td><div>/home/lalezka/Documentos/web2py</div></td></tr><tr><td style="font-weight:bold;vertical-align:top;">web2py_version</td><td style="vertical-align:top;">:</td><td><div>2.14.6-stable+timestamp.2016.05.10.00.21.47</div></td></tr><tr><td style="font-weight:bold;vertical-align:top;">wsgi.errors</td><td style="vertical-align:top;">:</td><td><div>&lt;open file &#x27;&lt;stderr&gt;&#x27;, mode &#x27;w&#x27; at 0xb74b90d0&gt;</div></td></tr><tr><td style="font-weight:bold;vertical-align:top;">wsgi.file_wrapper</td><td style="vertical-align:top;">:</td><td><div>&lt;class wsgiref.util.FileWrapper at 0xb670fa1c&gt;</div></td></tr><tr><td style="font-weight:bold;vertical-align:top;">wsgi.input</td><td style="vertical-align:top;">:</td><td><div>&lt;socket._fileobject object at 0xaf564c2c&gt;</div></td></tr><tr><td style="font-weight:bold;vertical-align:top;">wsgi.multiprocess</td><td style="vertical-align:top;">:</td><td><div>False</div></td></tr><tr><td style="font-weight:bold;vertical-align:top;">wsgi.multithread</td><td style="vertical-align:top;">:</td><td><div>True</div></td></tr><tr><td style="font-weight:bold;vertical-align:top;">wsgi.run_once</td><td style="vertical-align:top;">:</td><td><div>False</div></td></tr><tr><td style="font-weight:bold;vertical-align:top;">wsgi.url_scheme</td><td style="vertical-align:top;">:</td><td><div>http</div></td></tr><tr><td style="font-weight:bold;vertical-align:top;">wsgi.version</td><td style="vertical-align:top;">:</td><td><div><table><tr><td><div>1</div></td></tr><tr><td><div>0</div></td></tr></table></div></td></tr><tr><td style="font-weight:bold;vertical-align:top;">wsgi_errors</td><td style="vertical-align:top;">:</td><td><div>&lt;open file &#x27;&lt;stderr&gt;&#x27;, mode &#x27;w&#x27; at 0xb74b90d0&gt;</div></td></tr><tr><td style="font-weight:bold;vertical-align:top;">wsgi_file_wrapper</td><td style="vertical-align:top;">:</td><td><div>&lt;class wsgiref.util.FileWrapper at 0xb670fa1c&gt;</div></td></tr><tr><td style="font-weight:bold;vertical-align:top;">wsgi_input</td><td style="vertical-align:top;">:</td><td><div>&lt;socket._fileobject object at 0xaf564c2c&gt;</div></td></tr><tr><td style="font-weight:bold;vertical-align:top;">wsgi_multiprocess</td><td style="vertical-align:top;">:</td><td><div>False</div></td></tr><tr><td style="font-weight:bold;vertical-align:top;">wsgi_multithread</td><td style="vertical-align:top;">:</td><td><div>True</div></td></tr><tr><td style="font-weight:bold;vertical-align:top;">wsgi_run_once</td><td style="vertical-align:top;">:</td><td><div>False</div></td></tr><tr><td style="font-weight:bold;vertical-align:top;">wsgi_url_scheme</td><td style="vertical-align:top;">:</td><td><div>http</div></td></tr><tr><td style="font-weight:bold;vertical-align:top;">wsgi_version</td><td style="vertical-align:top;">:</td><td><div><table><tr><td><div>1</div></td></tr><tr><td><div>0</div></td></tr></table></div></td></tr></table></div></td></tr><tr><td style="font-weight:bold;vertical-align:top;">extension</td><td style="vertical-align:top;">:</td><td><div>html</div></td></tr><tr><td style="font-weight:bold;vertical-align:top;">folder</td><td style="vertical-align:top;">:</td><td><div>/home/lalezka/Documentos/web2py/applications/Apolo/</div></td></tr><tr><td style="font-weight:bold;vertical-align:top;">function</td><td style="vertical-align:top;">:</td><td><div>perfilth</div></td></tr><tr><td style="font-weight:bold;vertical-align:top;">global_settings</td><td style="vertical-align:top;">:</td><td><div><table><tr><td style="font-weight:bold;vertical-align:top;">app_folders</td><td style="vertical-align:top;">:</td><td><div>set([&#x27;/home/lalezka/Documentos/web2py/applications/welcome/&#x27;, &#x27;/home/lalezka/Documentos/web2py/applications/Apolo/&#x27;, &#x27;/home/lalezka/Documentos/web2py/applications/admin/&#x27;])</div></td></tr><tr><td style="font-weight:bold;vertical-align:top;">applications_parent</td><td style="vertical-align:top;">:</td><td><div>/home/lalezka/Documentos/web2py</div></td></tr><tr><td style="font-weight:bold;vertical-align:top;">cmd_args</td><td style="vertical-align:top;">:</td><td><div><table></table></div></td></tr><tr><td style="font-weight:bold;vertical-align:top;">cmd_options</td><td style="vertical-align:top;">:</td><td><div>&lt;Values at 0xb66d6eec: {&#x27;verbose&#x27;: False, &#x27;ip&#x27;: &#x27;127.0.0.1&#x27;, &#x27;debuglevel&#x27;: 30, &#x27;with_scheduler&#x27;: False, &#x27;shutdown_timeout&#x27;: 5, &#x27;taskbar&#x27;: False, &#x27;with_coverage&#x27;: False, &#x27;pid_filename&#x27;: &#x27;httpserver.pid&#x27;, &#x27;maxthreads&#x27;: None, &#x27;softcron&#x27;: False, &#x27;server_name&#x27;: &#x27;lalezka&#x27;, &#x27;bpython&#x27;: False, &#x27;nogui&#x27;: False, &#x27;port&#x27;: 8000, &#x27;print_errors&#x27;: False, &#x27;extcron&#x27;: False, &#x27;runcron&#x27;: False, &#x27;run_system_tests&#x27;: False, &#x27;test&#x27;: None, &#x27;folder&#x27;: &#x27;/home/lalezka/Documentos/web2py&#x27;, &#x27;config&#x27;: &#x27;&#x27;, &#x27;minthreads&#x27;: None, &#x27;shell&#x27;: None, &#x27;run&#x27;: &#x27;&#x27;, &#x27;log_filename&#x27;: &#x27;httpserver.log&#x27;, &#x27;profiler_dir&#x27;: None, &#x27;args&#x27;: [&#x27;&#x27;], &#x27;socket_timeout&#x27;: 5, &#x27;ssl_ca_certificate&#x27;: None, &#x27;scheduler&#x27;: None, &#x27;interfaces&#x27;: None, &#x27;ssl_private_key&#x27;: &#x27;&#x27;, &#x27;gae&#x27;: None, &#x27;password&#x27;: &#x27;******&#x27;, &#x27;request_queue_size&#x27;: 5, &#x27;ssl_certificate&#x27;: &#x27;&#x27;, &#x27;cronjob&#x27;: False, &#x27;numthreads&#x27;: None, &#x27;quiet&#x27;: False, &#x27;import_models&#x27;: False, &#x27;timeout&#x27;: 10, &#x27;plain&#x27;: False, &#x27;nobanner&#x27;: False}&gt;</div></td></tr><tr><td style="font-weight:bold;vertical-align:top;">db_sessions</td><td style="vertical-align:top;">:</td><td><div>set([])</div></td></tr><tr><td style="font-weight:bold;vertical-align:top;">debugging</td><td style="vertical-align:top;">:</td><td><div>True</div></td></tr><tr><td style="font-weight:bold;vertical-align:top;">gluon_parent</td><td style="vertical-align:top;">:</td><td><div>/home/lalezka/Documentos/web2py</div></td></tr><tr><td style="font-weight:bold;vertical-align:top;">is_jython</td><td style="vertical-align:top;">:</td><td><div>False</div></td></tr><tr><td style="font-weight:bold;vertical-align:top;">is_pypy</td><td style="vertical-align:top;">:</td><td><div>False</div></td></tr><tr><td style="font-weight:bold;vertical-align:top;">is_source</td><td style="vertical-align:top;">:</td><td><div>True</div></td></tr><tr><td style="font-weight:bold;vertical-align:top;">local_hosts</td><td style="vertical-align:top;">:</td><td><div><table><tr><td><div>::1</div></td></tr><tr><td><div>127.0.1.1</div></td></tr><tr><td><div>::ffff:127.0.0.1</div></td></tr><tr><td><div>127.0.0.1</div></td></tr><tr><td><div>lalezka</div></td></tr></table></div></td></tr><tr><td style="font-weight:bold;vertical-align:top;">web2py_version</td><td style="vertical-align:top;">:</td><td><div>2.14.6-stable+timestamp.2016.05.10.00.21.47</div></td></tr></table></div></td></tr><tr><td style="font-weight:bold;vertical-align:top;">is_https</td><td style="vertical-align:top;">:</td><td><div>False</div></td></tr><tr><td style="font-weight:bold;vertical-align:top;">is_local</td><td style="vertical-align:top;">:</td><td><div>True</div></td></tr><tr><td style="font-weight:bold;vertical-align:top;">is_restful</td><td style="vertical-align:top;">:</td><td><div>False</div></td></tr><tr><td style="font-weight:bold;vertical-align:top;">is_scheduler</td><td style="vertical-align:top;">:</td><td><div>False</div></td></tr><tr><td style="font-weight:bold;vertical-align:top;">is_shell</td><td style="vertical-align:top;">:</td><td><div>False</div></td></tr><tr><td style="font-weight:bold;vertical-align:top;">now</td><td style="vertical-align:top;">:</td><td><div>datetime.datetime(2017, 2, 15, 16, 8, 28, 998417)</div></td></tr><tr><td style="font-weight:bold;vertical-align:top;">raw_args</td><td style="vertical-align:top;">:</td><td><div></div></td></tr><tr><td style="font-weight:bold;vertical-align:top;">raw_extension</td><td style="vertical-align:top;">:</td><td><div>html</div></td></tr><tr><td style="font-weight:bold;vertical-align:top;">url</td><td style="vertical-align:top;">:</td><td><div>/Apolo/default/perfilth.html</div></td></tr><tr><td style="font-weight:bold;vertical-align:top;">utcnow</td><td style="vertical-align:top;">:</td><td><div>datetime.datetime(2017, 2, 15, 20, 8, 28, 998519)</div></td></tr><tr><td style="font-weight:bold;vertical-align:top;">wsgi</td><td style="vertical-align:top;">:</td><td><div>&lt;gluon.main.LazyWSGI object at 0xaf09daec&gt;</div></td></tr></table></div>'
tRp70
sS'frames'
p71
(lp72
(dp73
S'file'
p74
S'/home/lalezka/Documentos/web2py/gluon/restricted.py'
p75
sS'dump'
p76
(dp77
S'environment'
p78
S"{'A': <class 'gluon.html.A'>, 'ANY_OF': <class 'gluon.validators.ANY_OF'>, 'ASSIGNJS': <function ASSIGNJS>, 'AppConfig': <function AppConfig>, 'Auth': <class 'gluon.tools.Auth'>, 'B': <class 'gluon.html.B'>, 'BEAUTIFY': <class 'gluon.html.BEAUTIFY'>, 'BODY': <class 'gluon.html.BODY'>, 'BR': <class 'gluon.html.BR'>, 'BUTTON': <class 'gluon.html.BUTTON'>, ...}"
p79
sS'ccode'
p80
S'<code object <module> at 0xaf37b218, file "/home...tions/Apolo/views/default/perfilth.html", line 1>'
p81
ssS'lnum'
p82
I227
sS'lines'
p83
(dp84
I224
S'            ccode = code'
p85
sI225
S'        else:'
p86
sI226
S'            ccode = compile2(code, layer)'
p87
sI227
S'        exec ccode in environment'
p88
sI228
S'    except HTTP:'
p89
sI229
S'        raise'
p90
sI230
S'    except RestrictedError:'
p91
sI231
S'        # do not encapsulate (obfuscate) the original RestrictedError'
p92
sI222
S'    try:'
p93
sI223
S'        if isinstance(code, types.CodeType):'
p94
ssS'call'
p95
S'(code=\'response.write(\\\'<!DOCTYPE html>\\\\n<html lang="es"...nse.write(\\\'\\\\n  </body>\\\\n</html>\\\\n\\\', escape=False)\', environment={\'A\': <class \'gluon.html.A\'>, \'ANY_OF\': <class \'gluon.validators.ANY_OF\'>, \'ASSIGNJS\': <function ASSIGNJS>, \'AppConfig\': <function AppConfig>, \'Auth\': <class \'gluon.tools.Auth\'>, \'B\': <class \'gluon.html.B\'>, \'BEAUTIFY\': <class \'gluon.html.BEAUTIFY\'>, \'BODY\': <class \'gluon.html.BODY\'>, \'BR\': <class \'gluon.html.BR\'>, \'BUTTON\': <class \'gluon.html.BUTTON\'>, ...}, layer=\'/home/lalezka/Documentos/web2py/applications/Apolo/views/default/perfilth.html\')'
p96
sS'func'
p97
S'restricted'
p98
sa(dp99
g74
S'/home/lalezka/Documentos/web2py/applications/Apolo/views/default/perfilth.html'
p100
sg76
(dp101
S'div'
p102
S'undefined'
p103
sS'b'
g103
sS'style'
p104
g103
sS'Ascenso'
p105
g103
ssg82
I56
sg83
(dp106
I64
S'response.write(\'</div>\\n          <div id="poweredBy" class="pull-right">\\n            \', escape=False)'
p107
sI65
S"response.write(T('Powered by'))"
p108
sI66
S'response.write(\'\\n            <a href="http://www.web2py.com/">web2py</a>\\n          </div>\\n      </div>\\n    </footer>\\n\\n    <!-- The javascript =============================== -->\\n    <script src="\', escape=False)'
p109
sI47
S"right_sidebar_enabled = globals().get('right_sidebar_enabled', False)"
p110
sI48
S'middle_column = {0: mc0, 1: mc1, 2: mc2}['
p111
sI49
S'(left_sidebar_enabled and 1 or 0)+(right_sidebar_enabled and 1 or 0)]'
p112
sI50
S'response.write(\'\\n\\n  </head>\\n\\n  <body>\\n    <!-- Barra de navegaci\\xc3\\xb3n -->\\n   <nav class="navbar navbar-default navbar-fixed-top bg-4" role="navigation">\\n      <div class="container-fluid">\\n        <div class="navbar-header">\\n          <button type="button" class="navbar-toggle" data-toggle="collapse" data-target=".navbar-collapse">\\n            <span class="sr-only">Toggle navigation</span>\\n            <span class="icon-bar"></span>\\n            <span class="icon-bar"></span>\\n            <span class="icon-bar"></span>\\n          </button>\\n\\n          <!-- Banner -->\\n          <div class="row bg-2">\\n              <div class="col-md-6 col-sm-6 col-xs-6 col-md-offset-3 col-sm-offset-3 col-xs-offset-3">\\n                <img class="img-responsive" src="\', escape=False)'
p113
sI51
S"response.write(URL('static','images/logo-banner-large.png'))"
p114
sI52
S'response.write(\'" alt="Banner">\\n              </div>\\n            </div>\\n        </div>\\n\\n        <!-- Agrupar los enlaces de navegaci\\xc3\\xb3n, los formularios y cualquier\\n        otro elemento que se pueda ocultar al minimizar la barra -->\\n          <!-- FALTAN AGREGAR LOS HRER BIEN -->\\n        <div class="collapse navbar-collapse navbar-ex1-collapse" style="font-family:roboto;">\\n          <ul class="nav navbar-nav">\\n              <!-- DEFINIR CON WEB2PY EL INDEX CUANDO NO INICIAS SESION Y CUANDO INICIASTE SESION -->\\n            <li><a href="../default/index.html">About</a></li>\\n            <li class="dropdown">\\n              <a href="#" class="dropdown-toggle"> Operaciones <b class="caret"> </b> </a>\\n              <ul class="dropdown-menu">\\n                <li><a href="#">Servicio</a></li>\\n                <li class="divider"></li>\\n                <li><a href="#">Parte</a></li>\\n              </ul>\\n            </li>\\n              <li class="dropdown"> <a href="#" class="dropdown-toggle"> Talento Humano <b class="caret"></b> </a>\\n              <ul class="dropdown-menu">\\n                <li> <a href="../default/perfilth.html"> Ver Perfil </a> </li>\\n                <li class="divider"></li>\\n                <li> <a href="../default/perfilmodth.html"> Modificar Perfil </a> </li>\\n                <li class="divider"></li>\\n                <li> <a href="../default/buscarth.html"> Buscar </a> </li>\\n              </ul>\\n            </li>\\n              <li> <a href="#">Educaci\\xc3\\xb3n</a> </li>\\n              <li> <a href="#">Administraci\\xc3\\xb3n</a> </li>\\n              <li> <a href="#">Riesgos</a> </li>\\n              <li> <a href="../default/indexno.html">Salir</a> </li>\\n          </ul>\\n        </div>\\n      </div>\\n    </nav>\\n    \\n    \', escape=False)'
p115
sI53
S"response.write('\\n<h1>This is the perfilth.html template</h1>\\n', escape=False)"
p116
sI54
S'response.write(BEAUTIFY(response._vars))'
p117
sI55
S'response.write(\'\\n\\n<div class="container" style="font-family:roboto;">\\n    \', escape=False)'
p118
sI56
S'datos_usuario = db().select()'
p119
sI57
S'response.write(\'\\n    <br /><br /><br /><br /><br /><br />\\n    <div class="row">\\n        <!-- Foto -->\\n        <div class="col-xs-4">\\n            <div class="box">\\n                <img src="\', escape=False)'
p120
sI58
S"response.write(URL('static','images/apolo.png'))"
p121
sI59
S'response.write(\'" width="200px" height="200px">\\n            </div>\\n        </div>\\n        <!-- Nombre del usuario -->\\n        <b> <div class="col-xs-4 text-center" style="font-size:40px;"> Apolo </div> </b>\\n    </div>\\n    <br />\\n    <br />\\n    <br />\\n    <!-- Datos -->\\n    <div class="row">\\n        <b>\\n        <div class="col-xs-8 text-left" style="font-size:30px;">Datos B\\xc3\\xa1sicos</div>\\n        <div class="col-xs-4 text-left" style="font-size:30px;">Datos de Contacto</div>\\n        </b>\\n    </div>\\n    <div class="row">\\n        <b><div class="col-xs-3 text-left" style="font-size:15px;">C\\xc3\\xa9dula: </div></b>\\n        <div class="col-xs-3 text-left" style="font-size:15px;">23466895</div>\\n        <b><div class="col-xs-3 text-left" style="font-size:15px;">Celular: </div></b>\\n        <div class="col-xs-3 text-left" style="font-size:15px;">0426-5550044</div>\\n        <b><div class="col-xs-3 text-left" style="font-size:15px;">Fecha de Nacimiento: </div></b>\\n        <div class="col-xs-3 text-left" style="font-size:15px;">01/12/1994</div>\\n        <b><div class="col-xs-3 text-left" style="font-size:15px;">Casa: </div></b>\\n        <div class="col-xs-3 text-left" style="font-size:15px;">0212-9093909</div>\\n        <b><div class="col-xs-3 text-left" style="font-size:15px;">Sexo: </div></b>\\n        <div class="col-xs-3 text-left" style="font-size:15px;">F</div>\\n        <b><div class="col-xs-3 text-left" style="font-size:15px;">Trabajo: </div></b>\\n        <div class="col-xs-3 text-left" style="font-size:15px;">0212-9876543</div>\\n        <b><div class="col-xs-3 text-left" style="font-size:15px;">Tipo de Sangre: </div></b>\\n        <div class="col-xs-3 text-left" style="font-size:15px;">Factor O Rh -</div>\\n        <b><div class="col-xs-3 text-left" style="font-size:15px;">Email: </div></b>\\n        <div class="col-xs-3 text-left" style="font-size:15px;">correo@gmail.com</div>\\n    </div>\\n    <br /><br /><br />\\n    <!-- Condicion -->\\n    <b> <div class="\\xc2\\xbftext-left" style="font-size:30px;"> Condici\\xc3\\xb3n </div> </b>\\n    <div class="\\xc2\\xbftext-left" style="font-size:15px;"> No hay informaci\\xc3\\xb3n de la condici\\xc3\\xb3n actual. </div>\\n    <br /><br /><br />\\n    <!-- Vacaciones -->\\n    <b> <div class="\\xc2\\xbftext-left" style="font-size:30px;"> Vacaciones </div> </b>\\n    <div class="\\xc2\\xbftext-left" style="font-size:15px;"> Actualmente no se encuentra de vacaciones. </div>\\n    <br /><br /><br />\\n    <!-- Ascenso -->\\n    <b> <div class="text-left" style="font-size:30px;"> Ascenso </div> </b>\\n    <div class="row">\\n        <b> <div class="col-xs-3 text-left" style="font-size:15px;"> Cargo actual: </div> </b>\\n        <div class="col-xs-3 text-left" style="font-size:15px;"> Bombero </div>\\n        <b> <div class="col-xs-3 text-left" style="font-size:15px;"> A\\xc3\\xb1o de ascenso: </div> </b>\\n        <div class="col-xs-3 text-left" style="font-size:15px;"> 2015 </div>\\n        <b> <div class="col-xs-3 text-left" style="font-size:15px;"> Cargo anterior: </div> </b>\\n        <div class="col-xs-3 text-left" style="font-size:15px;"> Rojo </div>\\n        <b> <div class="col-xs-3 text-left" style="font-size:15px;"> A\\xc3\\xb1o de ascenso: </div> </b>\\n        <div class="col-xs-3 text-left" style="font-size:15px;"> 2010 </div>\\n        <b> <div class="col-xs-3 text-left" style="font-size:15px;"> Puntaje: </div> </b>\\n        <div class="col-xs-3 text-left" style="font-size:15px;"> 199 </div>\\n    </div>\\n    <br /><br /><br />\\n    <!-- Premiaciones -->\\n    <b> <div class="\\xc2\\xbftext-left" style="font-size:30px;"> Premiaciones </div> </b>\\n    <br /><br /><br />\\n    <!-- Cursos -->\\n    <b> <div class="\\xc2\\xbftext-center" style="font-size:30px;"> Cursos </div> </b>\\n    <br /><br /><br />\\n    \\n</div>\\n\', escape=False)'
p122
sI60
S'response.write(\'\\n      \\n      <!-- Footer -->\\n    <div class="container-fluid bg-4 text-left" style="padding-left: 20%; font-family:roboto;">\\n      <div class="row">\\n        <br>\\n          <p>Cont\\xc3\\xa1ctanos:</p>\\n          <p><span class="glyphicon glyphicon-map-marker">\\n          </span> Direcci\\xc3\\xb3n: Pabell\\xc3\\xb3n 1. Apartado 0900. Valle de Sartenejas. Baruta. Edo Miranda.</p>\\n          <p><span class="glyphicon glyphicon-phone">\\n          </span> Tel\\xc3\\xa9fono: (+58) 212 905-3909</p>\\n          <p><span class="glyphicon glyphicon-envelope">\\n          </span> Correo electr\\xc3\\xb3nico: extension.bomberos@usb.ve</p>\\n        <br>\\n      </div>\\n    </div>\\n\\n    <footer class="footer bg-4">\\n      <div class="container-fluid">\\n        <div class="copyright pull-left" style="font-family:roboto;">\', escape=False)'
p123
sI61
S"response.write(T('Copyright'))"
p124
sI62
S"response.write(' &#169; ', escape=False)"
p125
sI63
S'response.write(request.now.year)'
p126
ssg95
S'()'
p127
sg97
S'<module>'
p128
sa(dp129
g74
S'/home/lalezka/Documentos/web2py/gluon/packages/dal/pydal/objects.py'
p130
sg76
(dp131
S'self.query'
p132
S'None'
p133
sS'adapter.select'
p134
S'<bound method SQLiteAdapter.select of <pydal.adapters.sqlite.SQLiteAdapter object>>'
p135
sS'fields'
p136
S'[]'
p137
sS'adapter'
p138
S'<pydal.adapters.sqlite.SQLiteAdapter object>'
p139
sS'attributes'
p140
g21
sS'self'
p141
S'<Set None>'
p142
ssg82
I2020
sg83
(dp143
I2016
S"                                    attributes.get('left', None),"
p144
sI2017
S"                                    attributes.get('orderby', None),"
p145
sI2018
S"                                    attributes.get('groupby', None))"
p146
sI2019
S'        fields = adapter.expand_all(fields, tablenames)'
p147
sI2020
S'        return adapter.select(self.query, fields, attributes)'
p148
sI2021
S''
sI2022
S'    def iterselect(self, *fields, **attributes):'
p149
sI2023
S'        adapter = self.db._adapter'
p150
sI2024
S'        tablenames = adapter.tables(self.query,'
p151
sI2015
S"                                    attributes.get('join', None),"
p152
ssg95
S'(self=<Set None>, *fields=[], **attributes={})'
p153
sg97
S'select'
p154
sa(dp155
g74
S'/home/lalezka/Documentos/web2py/gluon/packages/dal/pydal/adapters/sqlite.py'
p156
sg76
(dp157
S'fields'
p158
S'[]'
p159
sS'self'
p160
S'<pydal.adapters.sqlite.SQLiteAdapter object>'
p161
sS').select'
p162
S'<bound method SQLiteAdapter.select of <pydal.adapters.sqlite.SQLiteAdapter object>>'
p163
sS'attributes'
p164
g21
sS'global SQLiteAdapter'
p165
S"<class 'pydal.adapters.sqlite.SQLiteAdapter'>"
p166
sS'query'
p167
S'None'
p168
sS'builtinsuper'
p169
S"<type 'super'>"
p170
ssg82
I123
sg83
(dp171
I118
S'        Note that the entire database, rather than one record, is locked'
p172
sI119
S'        (it will be locked eventually anyway by the following UPDATE).'
p173
sI120
S'        """'
p174
sI121
S"        if attributes.get('for_update', False) and not 'cache' in attributes:"
p175
sI122
S"            self.execute('BEGIN IMMEDIATE TRANSACTION;')"
p176
sI123
S'        return super(SQLiteAdapter, self).select(query, fields, attributes)'
p177
sI124
S''
sI125
S''
sI126
S'SPATIALLIBS = {'
p178
sI127
S"    'Windows':'mod_spatialite.dll',"
p179
ssg95
S'(self=<pydal.adapters.sqlite.SQLiteAdapter object>, query=None, fields=[], attributes={})'
p180
sg97
g154
sa(dp181
g74
S'/home/lalezka/Documentos/web2py/gluon/packages/dal/pydal/adapters/base.py'
p182
sg76
(dp183
S'self._select'
p184
S'<bound method SQLiteAdapter._select of <pydal.adapters.sqlite.SQLiteAdapter object>>'
p185
sS'fields'
p186
S'[]'
p187
sS'self'
p188
S'<pydal.adapters.sqlite.SQLiteAdapter object>'
p189
sS'sql'
p190
g103
sS'query'
p191
S'None'
p192
sS'attributes'
p193
g21
ssg82
I1283
sg83
(dp194
I1280
S'        """'
p195
sI1281
S'        Always returns a Rows object, possibly empty.'
p196
sI1282
S'        """'
p197
sI1283
S'        sql = self._select(query, fields, attributes)'
p198
sI1284
S"        cache = attributes.get('cache', None)"
p199
sI1285
S"        if cache and attributes.get('cacheable',False):"
p200
sI1286
S"            del attributes['cache']"
p201
sI1287
S'            (cache_model, time_expire) = cache'
p202
sI1278
S''
sI1279
S'    def select(self, query, fields, attributes):'
p203
ssg95
S'(self=<pydal.adapters.sqlite.SQLiteAdapter object>, query=None, fields=[], attributes={})'
p204
sg97
g154
sa(dp205
g74
S'/home/lalezka/Documentos/web2py/gluon/packages/dal/pydal/adapters/base.py'
p206
sg76
(dp207
S'builtinSyntaxError'
p208
S"<type 'exceptions.SyntaxError'>"
p209
ssg82
I1102
sg83
(dp210
I1097
S'            for tablename in tables(field):'
p211
sI1098
S'                if not tablename in tablenames:'
p212
sI1099
S'                    tablenames.append(tablename)'
p213
sI1100
S''
sI1101
S'        if len(tablenames) < 1:'
p214
sI1102
S"            raise SyntaxError('Set: no tables selected')"
p215
sI1103
S'        def colexpand(field):'
p216
sI1104
S'            return self.expand(field, colnames=True)'
p217
sI1105
S'        self._colnames = list(map(colexpand, fields))'
p218
sI1106
S'        def geoexpand(field):'
p219
ssg95
S'(self=<pydal.adapters.sqlite.SQLiteAdapter object>, query=None, fields=[], attributes={})'
p220
sg97
S'_select'
p221
sasS'pyver'
p222
S'Python 2.7.12: /usr/bin/python (prefix: /usr)'
p223
sS'session'
p224
g69
(S's\x1a\x00\x00\x00<div><table></table></div>'
tRp225
sS'etype'
p226
S"<type 'exceptions.SyntaxError'>"
p227
sS'date'
p228
S'Wed Feb 15 16:08:29 2017'
p229
sS'response'
p230
g69
(S's\xed>\x00\x00<div><table><tr><td style="font-weight:bold;vertical-align:top;">body</td><td style="vertical-align:top;">:</td><td><div>&lt;cStringIO.StringO object at 0xaf0cf100&gt;</div></td></tr><tr><td style="font-weight:bold;vertical-align:top;">cookies</td><td style="vertical-align:top;">:</td><td><div><table><tr><td style="font-weight:bold;vertical-align:top;">session_id_apolo</td><td style="vertical-align:top;">:</td><td><div>127.0.0.1-11bb8131-da69-44e5-b210-8d3c30007961<table><tr><td style="font-weight:bold;vertical-align:top;">comment</td><td style="vertical-align:top;">:</td><td><div></div></td></tr><tr><td style="font-weight:bold;vertical-align:top;">domain</td><td style="vertical-align:top;">:</td><td><div></div></td></tr><tr><td style="font-weight:bold;vertical-align:top;">expires</td><td style="vertical-align:top;">:</td><td><div></div></td></tr><tr><td style="font-weight:bold;vertical-align:top;">httponly</td><td style="vertical-align:top;">:</td><td><div></div></td></tr><tr><td style="font-weight:bold;vertical-align:top;">max-age</td><td style="vertical-align:top;">:</td><td><div></div></td></tr><tr><td style="font-weight:bold;vertical-align:top;">path</td><td style="vertical-align:top;">:</td><td><div>/</div></td></tr><tr><td style="font-weight:bold;vertical-align:top;">secure</td><td style="vertical-align:top;">:</td><td><div></div></td></tr><tr><td style="font-weight:bold;vertical-align:top;">version</td><td style="vertical-align:top;">:</td><td><div></div></td></tr></table></div></td></tr></table></div></td></tr><tr><td style="font-weight:bold;vertical-align:top;">delimiters</td><td style="vertical-align:top;">:</td><td><div><table><tr><td><div>{{</div></td></tr><tr><td><div>}}</div></td></tr></table></div></td></tr><tr><td style="font-weight:bold;vertical-align:top;">files</td><td style="vertical-align:top;">:</td><td><div><table><tr><td><div>/Apolo/static/js/jquery.js</div></td></tr><tr><td><div>/Apolo/static/css/calendar.css</div></td></tr><tr><td><div>/Apolo/static/js/calendar.js</div></td></tr><tr><td><div>/Apolo/static/js/web2py.js</div></td></tr></table></div></td></tr><tr><td style="font-weight:bold;vertical-align:top;">flash</td><td style="vertical-align:top;">:</td><td><div></div></td></tr><tr><td style="font-weight:bold;vertical-align:top;">form_label_separator</td><td style="vertical-align:top;">:</td><td><div></div></td></tr><tr><td style="font-weight:bold;vertical-align:top;">formstyle</td><td style="vertical-align:top;">:</td><td><div>bootstrap3_inline</div></td></tr><tr><td style="font-weight:bold;vertical-align:top;">generic_patterns</td><td style="vertical-align:top;">:</td><td><div><table><tr><td><div>*</div></td></tr></table></div></td></tr><tr><td style="font-weight:bold;vertical-align:top;">google_analytics_id</td><td style="vertical-align:top;">:</td><td><div>None</div></td></tr><tr><td style="font-weight:bold;vertical-align:top;">headers</td><td style="vertical-align:top;">:</td><td><div><table><tr><td style="font-weight:bold;vertical-align:top;">X-Powered-By</td><td style="vertical-align:top;">:</td><td><div>web2py</div></td></tr></table></div></td></tr><tr><td style="font-weight:bold;vertical-align:top;">logo</td><td style="vertical-align:top;">:</td><td><div><a class="navbar-brand" href="http://www.web2py.com/" id="web2py-logo"><b>web<span>2</span>py</b>&trade;&nbsp;</a></div></td></tr><tr><td style="font-weight:bold;vertical-align:top;">menu</td><td style="vertical-align:top;">:</td><td><div><table><tr><td><div><table><tr><td><div>Home</div></td></tr><tr><td><div>False</div></td></tr><tr><td><div>/Apolo/default/index</div></td></tr><tr><td><div><table></table></div></td></tr></table></div></td></tr><tr><td><div><table><tr><td><div>My Sites</div></td></tr><tr><td><div>False</div></td></tr><tr><td><div>/admin/default/site</div></td></tr></table></div></td></tr><tr><td><div><table><tr><td><div>This App</div></td></tr><tr><td><div>False</div></td></tr><tr><td><div>#</div></td></tr><tr><td><div><table><tr><td><div><table><tr><td><div>Design</div></td></tr><tr><td><div>False</div></td></tr><tr><td><div>/admin/default/design/Apolo</div></td></tr></table></div></td></tr><tr><td><div><li class="divider"></li></div></td></tr><tr><td><div><table><tr><td><div>Controller</div></td></tr><tr><td><div>False</div></td></tr><tr><td><div>/admin/default/edit/Apolo/controllers/default.py</div></td></tr></table></div></td></tr><tr><td><div><table><tr><td><div>View</div></td></tr><tr><td><div>False</div></td></tr><tr><td><div>/admin/default/edit/Apolo/views/default/perfilth.html</div></td></tr></table></div></td></tr><tr><td><div><table><tr><td><div>DB Model</div></td></tr><tr><td><div>False</div></td></tr><tr><td><div>/admin/default/edit/Apolo/models/db.py</div></td></tr></table></div></td></tr><tr><td><div><table><tr><td><div>Menu Model</div></td></tr><tr><td><div>False</div></td></tr><tr><td><div>/admin/default/edit/Apolo/models/menu.py</div></td></tr></table></div></td></tr><tr><td><div><table><tr><td><div>Config.ini</div></td></tr><tr><td><div>False</div></td></tr><tr><td><div>/admin/default/edit/Apolo/private/appconfig.ini</div></td></tr></table></div></td></tr><tr><td><div><table><tr><td><div>Layout</div></td></tr><tr><td><div>False</div></td></tr><tr><td><div>/admin/default/edit/Apolo/views/layout.html</div></td></tr></table></div></td></tr><tr><td><div><table><tr><td><div>Stylesheet</div></td></tr><tr><td><div>False</div></td></tr><tr><td><div>/admin/default/edit/Apolo/static/css/web2py-bootstrap3.css</div></td></tr></table></div></td></tr><tr><td><div><table><tr><td><div>Database</div></td></tr><tr><td><div>False</div></td></tr><tr><td><div>/Apolo/appadmin/index</div></td></tr></table></div></td></tr><tr><td><div><table><tr><td><div>Errors</div></td></tr><tr><td><div>False</div></td></tr><tr><td><div>/admin/default/errors/Apolo</div></td></tr></table></div></td></tr><tr><td><div><table><tr><td><div>About</div></td></tr><tr><td><div>False</div></td></tr><tr><td><div>/admin/default/about/Apolo</div></td></tr></table></div></td></tr></table></div></td></tr></table></div></td></tr><tr><td><div><table><tr><td><div>web2py.com</div></td></tr><tr><td><div>False</div></td></tr><tr><td><div>#</div></td></tr><tr><td><div><table><tr><td><div><table><tr><td><div>Download</div></td></tr><tr><td><div>False</div></td></tr><tr><td><div>http://www.web2py.com/examples/default/download</div></td></tr></table></div></td></tr><tr><td><div><table><tr><td><div>Support</div></td></tr><tr><td><div>False</div></td></tr><tr><td><div>http://www.web2py.com/examples/default/support</div></td></tr></table></div></td></tr><tr><td><div><table><tr><td><div>Demo</div></td></tr><tr><td><div>False</div></td></tr><tr><td><div>http://web2py.com/demo_admin</div></td></tr></table></div></td></tr><tr><td><div><table><tr><td><div>Quick Examples</div></td></tr><tr><td><div>False</div></td></tr><tr><td><div>http://web2py.com/examples/default/examples</div></td></tr></table></div></td></tr><tr><td><div><table><tr><td><div>FAQ</div></td></tr><tr><td><div>False</div></td></tr><tr><td><div>http://web2py.com/AlterEgo</div></td></tr></table></div></td></tr><tr><td><div><table><tr><td><div>Videos</div></td></tr><tr><td><div>False</div></td></tr><tr><td><div>http://www.web2py.com/examples/default/videos/</div></td></tr></table></div></td></tr><tr><td><div><table><tr><td><div>Free Applications</div></td></tr><tr><td><div>False</div></td></tr><tr><td><div>http://web2py.com/appliances</div></td></tr></table></div></td></tr><tr><td><div><table><tr><td><div>Plugins</div></td></tr><tr><td><div>False</div></td></tr><tr><td><div>http://web2py.com/plugins</div></td></tr></table></div></td></tr><tr><td><div><table><tr><td><div>Recipes</div></td></tr><tr><td><div>False</div></td></tr><tr><td><div>http://web2pyslices.com/</div></td></tr></table></div></td></tr></table></div></td></tr></table></div></td></tr><tr><td><div><table><tr><td><div>Documentation</div></td></tr><tr><td><div>False</div></td></tr><tr><td><div>#</div></td></tr><tr><td><div><table><tr><td><div><table><tr><td><div>Online book</div></td></tr><tr><td><div>False</div></td></tr><tr><td><div>http://www.web2py.com/book</div></td></tr></table></div></td></tr><tr><td><div><li class="divider"></li></div></td></tr><tr><td><div><table><tr><td><div>Preface</div></td></tr><tr><td><div>False</div></td></tr><tr><td><div>http://www.web2py.com/book/default/chapter/00</div></td></tr></table></div></td></tr><tr><td><div><table><tr><td><div>Introduction</div></td></tr><tr><td><div>False</div></td></tr><tr><td><div>http://www.web2py.com/book/default/chapter/01</div></td></tr></table></div></td></tr><tr><td><div><table><tr><td><div>Python</div></td></tr><tr><td><div>False</div></td></tr><tr><td><div>http://www.web2py.com/book/default/chapter/02</div></td></tr></table></div></td></tr><tr><td><div><table><tr><td><div>Overview</div></td></tr><tr><td><div>False</div></td></tr><tr><td><div>http://www.web2py.com/book/default/chapter/03</div></td></tr></table></div></td></tr><tr><td><div><table><tr><td><div>The Core</div></td></tr><tr><td><div>False</div></td></tr><tr><td><div>http://www.web2py.com/book/default/chapter/04</div></td></tr></table></div></td></tr><tr><td><div><table><tr><td><div>The Views</div></td></tr><tr><td><div>False</div></td></tr><tr><td><div>http://www.web2py.com/book/default/chapter/05</div></td></tr></table></div></td></tr><tr><td><div><table><tr><td><div>Database</div></td></tr><tr><td><div>False</div></td></tr><tr><td><div>http://www.web2py.com/book/default/chapter/06</div></td></tr></table></div></td></tr><tr><td><div><table><tr><td><div>Forms and Validators</div></td></tr><tr><td><div>False</div></td></tr><tr><td><div>http://www.web2py.com/book/default/chapter/07</div></td></tr></table></div></td></tr><tr><td><div><table><tr><td><div>Email and SMS</div></td></tr><tr><td><div>False</div></td></tr><tr><td><div>http://www.web2py.com/book/default/chapter/08</div></td></tr></table></div></td></tr><tr><td><div><table><tr><td><div>Access Control</div></td></tr><tr><td><div>False</div></td></tr><tr><td><div>http://www.web2py.com/book/default/chapter/09</div></td></tr></table></div></td></tr><tr><td><div><table><tr><td><div>Services</div></td></tr><tr><td><div>False</div></td></tr><tr><td><div>http://www.web2py.com/book/default/chapter/10</div></td></tr></table></div></td></tr><tr><td><div><table><tr><td><div>Ajax Recipes</div></td></tr><tr><td><div>False</div></td></tr><tr><td><div>http://www.web2py.com/book/default/chapter/11</div></td></tr></table></div></td></tr><tr><td><div><table><tr><td><div>Components and Plugins</div></td></tr><tr><td><div>False</div></td></tr><tr><td><div>http://www.web2py.com/book/default/chapter/12</div></td></tr></table></div></td></tr><tr><td><div><table><tr><td><div>Deployment Recipes</div></td></tr><tr><td><div>False</div></td></tr><tr><td><div>http://www.web2py.com/book/default/chapter/13</div></td></tr></table></div></td></tr><tr><td><div><table><tr><td><div>Other Recipes</div></td></tr><tr><td><div>False</div></td></tr><tr><td><div>http://www.web2py.com/book/default/chapter/14</div></td></tr></table></div></td></tr><tr><td><div><table><tr><td><div>Helping web2py</div></td></tr><tr><td><div>False</div></td></tr><tr><td><div>http://www.web2py.com/book/default/chapter/15</div></td></tr></table></div></td></tr><tr><td><div><table><tr><td><div>Buy web2py\'s book</div></td></tr><tr><td><div>False</div></td></tr><tr><td><div>http://stores.lulu.com/web2py</div></td></tr></table></div></td></tr></table></div></td></tr></table></div></td></tr><tr><td><div><table><tr><td><div>Community</div></td></tr><tr><td><div>False</div></td></tr><tr><td><div>None</div></td></tr><tr><td><div><table><tr><td><div><table><tr><td><div>Groups</div></td></tr><tr><td><div>False</div></td></tr><tr><td><div>http://www.web2py.com/examples/default/usergroups</div></td></tr></table></div></td></tr><tr><td><div><table><tr><td><div>Twitter</div></td></tr><tr><td><div>False</div></td></tr><tr><td><div>http://twitter.com/web2py</div></td></tr></table></div></td></tr><tr><td><div><table><tr><td><div>Live Chat</div></td></tr><tr><td><div>False</div></td></tr><tr><td><div>http://webchat.freenode.net/?channels=web2py</div></td></tr></table></div></td></tr></table></div></td></tr></table></div></td></tr></table></div></td></tr><tr><td style="font-weight:bold;vertical-align:top;">meta</td><td style="vertical-align:top;">:</td><td><div><table><tr><td style="font-weight:bold;vertical-align:top;">author</td><td style="vertical-align:top;">:</td><td><div>Your Name &lt;you@example.com&gt;</div></td></tr><tr><td style="font-weight:bold;vertical-align:top;">description</td><td style="vertical-align:top;">:</td><td><div>a cool new app</div></td></tr><tr><td style="font-weight:bold;vertical-align:top;">generator</td><td style="vertical-align:top;">:</td><td><div>Web2py Web Framework</div></td></tr><tr><td style="font-weight:bold;vertical-align:top;">keywords</td><td style="vertical-align:top;">:</td><td><div><table><tr><td><div>web2py</div></td></tr><tr><td><div>python</div></td></tr><tr><td><div>framework</div></td></tr></table></div></td></tr></table></div></td></tr><tr><td style="font-weight:bold;vertical-align:top;">models_to_run</td><td style="vertical-align:top;">:</td><td><div><table><tr><td><div>^\\w+\\.py$</div></td></tr><tr><td><div>^default/\\w+\\.py$</div></td></tr><tr><td><div>^default/perfilth/\\w+\\.py$</div></td></tr></table></div></td></tr><tr><td style="font-weight:bold;vertical-align:top;">postprocessing</td><td style="vertical-align:top;">:</td><td><div><table></table></div></td></tr><tr><td style="font-weight:bold;vertical-align:top;">session_client</td><td style="vertical-align:top;">:</td><td><div>127.0.0.1</div></td></tr><tr><td style="font-weight:bold;vertical-align:top;">session_cookie_compression_level</td><td style="vertical-align:top;">:</td><td><div>None</div></td></tr><tr><td style="font-weight:bold;vertical-align:top;">session_cookie_expires</td><td style="vertical-align:top;">:</td><td><div>None</div></td></tr><tr><td style="font-weight:bold;vertical-align:top;">session_data_name</td><td style="vertical-align:top;">:</td><td><div>session_data_apolo</div></td></tr><tr><td style="font-weight:bold;vertical-align:top;">session_file</td><td style="vertical-align:top;">:</td><td><div>None</div></td></tr><tr><td style="font-weight:bold;vertical-align:top;">session_filename</td><td style="vertical-align:top;">:</td><td><div>/home/lalezka/Documentos/web2py/applications/Apolo/sessions/127.0.0.1-11bb8131-da69-44e5-b210-8d3c30007961</div></td></tr><tr><td style="font-weight:bold;vertical-align:top;">session_hash</td><td style="vertical-align:top;">:</td><td><div>c0762cbf4baf7f9af97c051e7fcb8083</div></td></tr><tr><td style="font-weight:bold;vertical-align:top;">session_id</td><td style="vertical-align:top;">:</td><td><div>127.0.0.1-11bb8131-da69-44e5-b210-8d3c30007961</div></td></tr><tr><td style="font-weight:bold;vertical-align:top;">session_id_name</td><td style="vertical-align:top;">:</td><td><div>session_id_apolo</div></td></tr><tr><td style="font-weight:bold;vertical-align:top;">session_masterapp</td><td style="vertical-align:top;">:</td><td><div>Apolo</div></td></tr><tr><td style="font-weight:bold;vertical-align:top;">session_new</td><td style="vertical-align:top;">:</td><td><div>True</div></td></tr><tr><td style="font-weight:bold;vertical-align:top;">session_storage_type</td><td style="vertical-align:top;">:</td><td><div>file</div></td></tr><tr><td style="font-weight:bold;vertical-align:top;">status</td><td style="vertical-align:top;">:</td><td><div>200</div></td></tr><tr><td style="font-weight:bold;vertical-align:top;">subtitle</td><td style="vertical-align:top;">:</td><td><div></div></td></tr><tr><td style="font-weight:bold;vertical-align:top;">title</td><td style="vertical-align:top;">:</td><td><div>Apolo</div></td></tr><tr><td style="font-weight:bold;vertical-align:top;">view</td><td style="vertical-align:top;">:</td><td><div>default/perfilth.html</div></td></tr></table></div>'
tRp231
sS'locals'
p232
(dp233
S'tables'
p234
S'<bound method SQLiteAdapter.tables of <pydal.adapters.sqlite.SQLiteAdapter object>>'
p235
sS'outer_scoped'
p236
S'[]'
p237
sS'fields'
p238
S'[]'
p239
sS'self'
p240
S'<pydal.adapters.sqlite.SQLiteAdapter object>'
p241
sS'tablenames'
p242
S'[]'
p243
sS'query'
p244
S'None'
p245
sS'tablenames_for_common_filters'
p246
S'[]'
p247
sS'attributes'
p248
g21
sS'args_get'
p249
S'<built-in method get of dict object>'
p250
sssS'traceback'
p251
S'Traceback (most recent call last):\n  File "/home/lalezka/Documentos/web2py/gluon/restricted.py", line 227, in restricted\n    exec ccode in environment\n  File "/home/lalezka/Documentos/web2py/applications/Apolo/views/default/perfilth.html", line 56, in <module>\n    <b> <div class="text-left" style="font-size:30px;"> Ascenso </div> </b>\n  File "/home/lalezka/Documentos/web2py/gluon/packages/dal/pydal/objects.py", line 2020, in select\n    return adapter.select(self.query, fields, attributes)\n  File "/home/lalezka/Documentos/web2py/gluon/packages/dal/pydal/adapters/sqlite.py", line 123, in select\n    return super(SQLiteAdapter, self).select(query, fields, attributes)\n  File "/home/lalezka/Documentos/web2py/gluon/packages/dal/pydal/adapters/base.py", line 1283, in select\n    sql = self._select(query, fields, attributes)\n  File "/home/lalezka/Documentos/web2py/gluon/packages/dal/pydal/adapters/base.py", line 1102, in _select\n    raise SyntaxError(\'Set: no tables selected\')\nSyntaxError: Set: no tables selected\n'
p252
s.